target datalayout = "e-m:e-p270:32:32-p271:32:32-p272:64:64-i64:64-i128:128-f80:128-n8:16:32:64-S128"
target triple = "x86_64-pc-linux-gnu"

%"class.absl::Duration" = type { %"class.absl::Duration::HiRep", i32 }
%"class.absl::Duration::HiRep" = type { i32, i32 }
%"class.absl::base_internal::SchedulingGuard::ScopedEnable" = type { i32 }
%"struct.absl::(anonymous namespace)::MutexGlobals" = type { %"class.absl::once_flag", %"struct.std::atomic.8", [2 x i32], %"class.absl::Duration", [36 x i8] }
%"class.absl::once_flag" = type { %"struct.std::atomic.6" }
%"struct.std::atomic.6" = type { %"struct.std::__atomic_base.7" }
%"struct.std::__atomic_base.7" = type { i32 }
%"struct.std::atomic.8" = type { %"struct.std::__atomic_base.9" }
%"struct.std::__atomic_base.9" = type { i32 }
%class.anon = type { i8 }

@_ZN4absl12_GLOBAL__N_17globalsE = internal global { { { i32 } }, { i32 }, [2 x i32], %"class.absl::Duration", [36 x i8] } { { { i32 } } zeroinitializer, { i32 } zeroinitializer, [2 x i32] zeroinitializer, %"class.absl::Duration" zeroinitializer, [36 x i8] undef }, align 64

; Function Attrs: noinline noreturn nounwind uwtable
define linkonce_odr hidden void @__clang_call_terminate(ptr noundef %0) #12 comdat {
  %2 = call ptr @__cxa_begin_catch(ptr %0) #18
  call void @_ZSt9terminatev() #19
  unreachable
}

; Function Attrs: mustprogress nounwind uwtable
define linkonce_odr dso_local noundef i32 @_ZStanSt12memory_orderSt23__memory_order_modifier(i32 noundef %0, i32 noundef %1) #5 comdat {
  %3 = alloca i32, align 4
  %4 = alloca i32, align 4
  store i32 %0, ptr %3, align 4, !tbaa !53
  store i32 %1, ptr %4, align 4, !tbaa !181
  %5 = load i32, ptr %3, align 4, !tbaa !53
  %6 = load i32, ptr %4, align 4, !tbaa !181
  %7 = and i32 %5, %6
  ret i32 %7
}

; Function Attrs: alwaysinline mustprogress nounwind uwtable
define linkonce_odr dso_local noundef i32 @_ZNKSt13__atomic_baseIjE4loadESt12memory_order(ptr noundef nonnull align 4 dereferenceable(4) %0, i32 noundef %1) #7 comdat align 2 personality ptr @__gxx_personality_v0 {
  %3 = alloca ptr, align 8
  %4 = alloca i32, align 4
  %5 = alloca i32, align 4
  %6 = alloca i32, align 4
  store ptr %0, ptr %3, align 8, !tbaa !177
  store i32 %1, ptr %4, align 4, !tbaa !53
  %7 = load ptr, ptr %3, align 8
  call void @llvm.lifetime.start.p0(i64 4, ptr %5) #18
  %8 = load i32, ptr %4, align 4, !tbaa !53
  %9 = invoke noundef i32 @_ZStanSt12memory_orderSt23__memory_order_modifier(i32 noundef %8, i32 noundef 65535)
          to label %10 unwind label %27

10:                                               ; preds = %2
  store i32 %9, ptr %5, align 4, !tbaa !53
  br label %11

11:                                               ; preds = %10
  br label %12

12:                                               ; preds = %11
  br label %13

13:                                               ; preds = %12
  br label %14

14:                                               ; preds = %13
  br label %15

15:                                               ; preds = %14
  br label %16

16:                                               ; preds = %15
  %17 = getelementptr inbounds nuw %"struct.std::__atomic_base.7", ptr %7, i32 0, i32 0
  %18 = load i32, ptr %4, align 4, !tbaa !53
  switch i32 %18, label %19 [
    i32 1, label %21
    i32 2, label %21
    i32 5, label %23
  ]

19:                                               ; preds = %16
  %20 = load atomic i32, ptr %17 monotonic, align 4
  store i32 %20, ptr %6, align 4
  br label %25

21:                                               ; preds = %16, %16
  %22 = load atomic i32, ptr %17 acquire, align 4
  store i32 %22, ptr %6, align 4
  br label %25

23:                                               ; preds = %16
  %24 = load atomic i32, ptr %17 seq_cst, align 4
  store i32 %24, ptr %6, align 4
  br label %25

25:                                               ; preds = %23, %21, %19
  %26 = load i32, ptr %6, align 4, !tbaa !16
  call void @llvm.lifetime.end.p0(i64 4, ptr %5) #18
  ret i32 %26

27:                                               ; preds = %2
  %28 = landingpad { ptr, i32 }
          catch ptr null
  %29 = extractvalue { ptr, i32 } %28, 0
  call void @__clang_call_terminate(ptr %29) #19
  unreachable
}

; Function Attrs: inlinehint mustprogress nounwind uwtable
define linkonce_odr dso_local noundef ptr @_ZN4absl13base_internal11ControlWordEPNS_9once_flagE(ptr noundef %0) #1 comdat {
  %2 = alloca ptr, align 8
  store ptr %0, ptr %2, align 8, !tbaa !173
  %3 = load ptr, ptr %2, align 8, !tbaa !173
  %4 = getelementptr inbounds nuw %"class.absl::once_flag", ptr %3, i32 0, i32 0
  ret ptr %4
}

; Function Attrs: mustprogress uwtable
define internal void @"_ZN4absl13base_internal16LowLevelCallOnceIZNS_12_GLOBAL__N_115GetMutexGlobalsEvE3$_0JEEEvPNS_9once_flagEOT_DpOT0_"(ptr noundef %0, ptr noundef nonnull align 1 dereferenceable(1) %1) #0 {
  %3 = alloca ptr, align 8
  %4 = alloca ptr, align 8
  %5 = alloca ptr, align 8
  %6 = alloca i32, align 4
  store ptr %0, ptr %3, align 8, !tbaa !173
  store ptr %1, ptr %4, align 8, !tbaa !4
  call void @llvm.lifetime.start.p0(i64 8, ptr %5) #18
  %7 = load ptr, ptr %3, align 8, !tbaa !173
  %8 = call noundef ptr @_ZN4absl13base_internal11ControlWordEPNS_9once_flagE(ptr noundef %7)
  store ptr %8, ptr %5, align 8, !tbaa !175
  call void @llvm.lifetime.start.p0(i64 4, ptr %6) #18
  %9 = load ptr, ptr %5, align 8, !tbaa !175
  %10 = call noundef i32 @_ZNKSt13__atomic_baseIjE4loadESt12memory_order(ptr noundef nonnull align 4 dereferenceable(4) %9, i32 noundef 2) #18
  store i32 %10, ptr %6, align 4, !tbaa !16
  %11 = load i32, ptr %6, align 4, !tbaa !16
  %12 = icmp ne i32 %11, 221
  %13 = zext i1 %12 to i64
  %14 = call i64 @llvm.expect.i64(i64 %13, i64 0)
  %15 = icmp ne i64 %14, 0
  br i1 %15, label %16, label %19

16:                                               ; preds = %2
  %17 = load ptr, ptr %5, align 8, !tbaa !175
  %18 = load ptr, ptr %4, align 8, !tbaa !4
  call void @"_ZN4absl13base_internal12CallOnceImplIZNS_12_GLOBAL__N_115GetMutexGlobalsEvE3$_0JEEEvPSt6atomicIjENS0_14SchedulingModeEOT_DpOT0_"(ptr noundef %17, i32 noundef 0, ptr noundef nonnull align 1 dereferenceable(1) %18)
  br label %19

19:                                               ; preds = %16, %2
  call void @llvm.lifetime.end.p0(i64 4, ptr %6) #18
  call void @llvm.lifetime.end.p0(i64 8, ptr %5) #18
  ret void
}

; Function Attrs: inlinehint mustprogress uwtable
define linkonce_odr dso_local void @_ZN4absl8SleepForENS_8DurationE(i64 %0, i32 %1) #4 comdat {
  %3 = alloca %"class.absl::Duration", align 4
  %4 = alloca { i64, i32 }, align 4
  %5 = alloca %"class.absl::Duration", align 4
  %6 = alloca { i64, i32 }, align 4
  %7 = getelementptr inbounds nuw { i64, i32 }, ptr %4, i32 0, i32 0
  store i64 %0, ptr %7, align 4
  %8 = getelementptr inbounds nuw { i64, i32 }, ptr %4, i32 0, i32 1
  store i32 %1, ptr %8, align 4
  call void @llvm.memcpy.p0.p0.i64(ptr align 4 %3, ptr align 4 %4, i64 12, i1 false)
  call void @llvm.memcpy.p0.p0.i64(ptr align 4 %5, ptr align 4 %3, i64 12, i1 false), !tbaa.struct !18
  call void @llvm.memcpy.p0.p0.i64(ptr align 4 %6, ptr align 4 %5, i64 12, i1 false)
  %9 = getelementptr inbounds nuw { i64, i32 }, ptr %6, i32 0, i32 0
  %10 = load i64, ptr %9, align 4
  %11 = getelementptr inbounds nuw { i64, i32 }, ptr %6, i32 0, i32 1
  %12 = load i32, ptr %11, align 4
  call void @AbslInternalSleepFor(i64 %10, i32 %12)
  ret void
}

; Function Attrs: inlinehint mustprogress nounwind uwtable
define linkonce_odr dso_local void @_ZN4absl13base_internal15SchedulingGuard12ScopedEnableC2Ev(ptr noundef nonnull align 4 dereferenceable(4) %0) unnamed_addr #1 comdat align 2 {
  %2 = alloca ptr, align 8
  store ptr %0, ptr %2, align 8, !tbaa !19
  %3 = load ptr, ptr %2, align 8
  %4 = getelementptr inbounds nuw %"class.absl::base_internal::SchedulingGuard::ScopedEnable", ptr %3, i32 0, i32 0
  store i32 0, ptr %4, align 4, !tbaa !21
  ret void
}

; Function Attrs: mustprogress uwtable
define internal noundef nonnull align 64 dereferenceable(28) ptr @_ZN4absl12_GLOBAL__N_115GetMutexGlobalsEv() #0 {
  %1 = alloca %class.anon, align 1
  call void @llvm.lifetime.start.p0(i64 1, ptr %1) #18
  call void @"_ZN4absl13base_internal16LowLevelCallOnceIZNS_12_GLOBAL__N_115GetMutexGlobalsEvE3$_0JEEEvPNS_9once_flagEOT_DpOT0_"(ptr noundef @_ZN4absl12_GLOBAL__N_17globalsE, ptr noundef nonnull align 1 dereferenceable(1) %1)
  call void @llvm.lifetime.end.p0(i64 1, ptr %1) #18
  ret ptr @_ZN4absl12_GLOBAL__N_17globalsE
}

; Function Attrs: mustprogress uwtable
define dso_local noundef i32 @_ZN4absl24synchronization_internal10MutexDelayEii(i32 noundef %0, i32 noundef %1) #0 personality ptr @__gxx_personality_v0 {
  %3 = alloca i32, align 4
  %4 = alloca i32, align 4
  %5 = alloca i32, align 4
  %6 = alloca %"class.absl::Duration", align 4
  %7 = alloca %"class.absl::base_internal::SchedulingGuard::ScopedEnable", align 4
  %8 = alloca ptr, align 8
  %9 = alloca i32, align 4
  %10 = alloca %"class.absl::Duration", align 4
  %11 = alloca { i64, i32 }, align 4
  store i32 %0, ptr %3, align 4, !tbaa !16
  store i32 %1, ptr %4, align 4, !tbaa !16
  call void @llvm.lifetime.start.p0(i64 4, ptr %5) #18
  %12 = call noundef nonnull align 64 dereferenceable(28) ptr @_ZN4absl12_GLOBAL__N_115GetMutexGlobalsEv()
  %13 = getelementptr inbounds nuw %"struct.absl::(anonymous namespace)::MutexGlobals", ptr %12, i32 0, i32 2
  %14 = load i32, ptr %4, align 4, !tbaa !16
  %15 = sext i32 %14 to i64
  %16 = getelementptr inbounds [2 x i32], ptr %13, i64 0, i64 %15
  %17 = load i32, ptr %16, align 4, !tbaa !16
  store i32 %17, ptr %5, align 4, !tbaa !16
  call void @llvm.lifetime.start.p0(i64 12, ptr %6) #18
  %18 = call noundef nonnull align 64 dereferenceable(28) ptr @_ZN4absl12_GLOBAL__N_115GetMutexGlobalsEv()
  %19 = getelementptr inbounds nuw %"struct.absl::(anonymous namespace)::MutexGlobals", ptr %18, i32 0, i32 3
  call void @llvm.memcpy.p0.p0.i64(ptr align 4 %6, ptr align 16 %19, i64 12, i1 false), !tbaa.struct !18
  %20 = load i32, ptr %3, align 4, !tbaa !16
  %21 = load i32, ptr %5, align 4, !tbaa !16
  %22 = icmp slt i32 %20, %21
  br i1 %22, label %23, label %26

23:                                               ; preds = %2
  %24 = load i32, ptr %3, align 4, !tbaa !16
  %25 = add nsw i32 %24, 1
  store i32 %25, ptr %3, align 4, !tbaa !16
  br label %45

26:                                               ; preds = %2
  call void @llvm.lifetime.start.p0(i64 4, ptr %7) #18
  call void @_ZN4absl13base_internal15SchedulingGuard12ScopedEnableC2Ev(ptr noundef nonnull align 4 dereferenceable(4) %7)
  %27 = load i32, ptr %3, align 4, !tbaa !16
  %28 = load i32, ptr %5, align 4, !tbaa !16
  %29 = icmp eq i32 %27, %28
  br i1 %29, label %30, label %38

30:                                               ; preds = %26
  invoke void @AbslInternalMutexYield()
          to label %31 unwind label %34

31:                                               ; preds = %30
  %32 = load i32, ptr %3, align 4, !tbaa !16
  %33 = add nsw i32 %32, 1
  store i32 %33, ptr %3, align 4, !tbaa !16
  br label %44

34:                                               ; preds = %38, %30
  %35 = landingpad { ptr, i32 }
          cleanup
  %36 = extractvalue { ptr, i32 } %35, 0
  store ptr %36, ptr %8, align 8
  %37 = extractvalue { ptr, i32 } %35, 1
  store i32 %37, ptr %9, align 4
  call void @_ZN4absl13base_internal15SchedulingGuard12ScopedEnableD2Ev(ptr noundef nonnull align 4 dereferenceable(4) %7) #18
  call void @llvm.lifetime.end.p0(i64 4, ptr %7) #18
  call void @llvm.lifetime.end.p0(i64 12, ptr %6) #18
  call void @llvm.lifetime.end.p0(i64 4, ptr %5) #18
  br label %47

38:                                               ; preds = %26
  call void @llvm.memcpy.p0.p0.i64(ptr align 4 %10, ptr align 4 %6, i64 12, i1 false), !tbaa.struct !18
  call void @llvm.memcpy.p0.p0.i64(ptr align 4 %11, ptr align 4 %10, i64 12, i1 false)
  %39 = getelementptr inbounds nuw { i64, i32 }, ptr %11, i32 0, i32 0
  %40 = load i64, ptr %39, align 4
  %41 = getelementptr inbounds nuw { i64, i32 }, ptr %11, i32 0, i32 1
  %42 = load i32, ptr %41, align 4
  invoke void @_ZN4absl8SleepForENS_8DurationE(i64 %40, i32 %42)
          to label %43 unwind label %34

43:                                               ; preds = %38
  store i32 0, ptr %3, align 4, !tbaa !16
  br label %44

44:                                               ; preds = %43, %31
  call void @_ZN4absl13base_internal15SchedulingGuard12ScopedEnableD2Ev(ptr noundef nonnull align 4 dereferenceable(4) %7) #18
  call void @llvm.lifetime.end.p0(i64 4, ptr %7) #18
  br label %45

45:                                               ; preds = %44, %23
  %46 = load i32, ptr %3, align 4, !tbaa !16
  call void @llvm.lifetime.end.p0(i64 12, ptr %6) #18
  call void @llvm.lifetime.end.p0(i64 4, ptr %5) #18
  ret i32 %46

47:                                               ; preds = %34
  %48 = load ptr, ptr %8, align 8
  %49 = load i32, ptr %9, align 4
  %50 = insertvalue { ptr, i32 } poison, ptr %48, 0
  %51 = insertvalue { ptr, i32 } %50, i32 %49, 1
  resume { ptr, i32 } %51
}