; Function Attrs: mustprogress uwtable
define dso_local noundef range(i32 -2147483647, -2147483648) i32 @_ZN4absl24synchronization_internal10MutexDelayEii(i32 noundef %0, i32 noundef %1) local_unnamed_addr #0 personality ptr @__gxx_personality_v0 {
  %3 = alloca %"class.absl::base_internal::SchedulingGuard::ScopedEnable", align 4
  %4 = load atomic i32, ptr @_ZN4absl12_GLOBAL__N_17globalsE acquire, align 64
  %.not.i.i = icmp eq i32 %4, 221
  br i1 %.not.i.i, label %_ZN4absl12_GLOBAL__N_115GetMutexGlobalsEv.exit, label %5, !prof !19

5:                                                ; preds = %2
  tail call fastcc void @"_ZN4absl13base_internal12CallOnceImplIZNS_12_GLOBAL__N_115GetMutexGlobalsEvE3$_0JEEEvPSt6atomicIjENS0_14SchedulingModeEOT_DpOT0_"(ptr noundef nonnull @_ZN4absl12_GLOBAL__N_17globalsE)
  br label %_ZN4absl12_GLOBAL__N_115GetMutexGlobalsEv.exit

_ZN4absl12_GLOBAL__N_115GetMutexGlobalsEv.exit:   ; preds = %2, %5
  %6 = sext i32 %1 to i64
  %7 = getelementptr inbounds [2 x i32], ptr getelementptr inbounds nuw (i8, ptr @_ZN4absl12_GLOBAL__N_17globalsE, i64 8), i64 0, i64 %6
  %8 = load i32, ptr %7, align 4, !tbaa !20
  %9 = load atomic i32, ptr @_ZN4absl12_GLOBAL__N_17globalsE acquire, align 64
  %.not.i.i15 = icmp eq i32 %9, 221
  br i1 %.not.i.i15, label %_ZN4absl12_GLOBAL__N_115GetMutexGlobalsEv.exit16, label %10, !prof !19

10:                                               ; preds = %_ZN4absl12_GLOBAL__N_115GetMutexGlobalsEv.exit
  tail call fastcc void @"_ZN4absl13base_internal12CallOnceImplIZNS_12_GLOBAL__N_115GetMutexGlobalsEvE3$_0JEEEvPSt6atomicIjENS0_14SchedulingModeEOT_DpOT0_"(ptr noundef nonnull @_ZN4absl12_GLOBAL__N_17globalsE)
  br label %_ZN4absl12_GLOBAL__N_115GetMutexGlobalsEv.exit16

_ZN4absl12_GLOBAL__N_115GetMutexGlobalsEv.exit16: ; preds = %_ZN4absl12_GLOBAL__N_115GetMutexGlobalsEv.exit, %10
  %.sroa.03.0.copyload = load i64, ptr getelementptr inbounds nuw (i8, ptr @_ZN4absl12_GLOBAL__N_17globalsE, i64 16), align 16
  %.sroa.5.0.copyload = load i32, ptr getelementptr inbounds nuw (i8, ptr @_ZN4absl12_GLOBAL__N_17globalsE, i64 24), align 8, !tbaa !20
  %11 = icmp slt i32 %0, %8
  br i1 %11, label %12, label %14

12:                                               ; preds = %_ZN4absl12_GLOBAL__N_115GetMutexGlobalsEv.exit16
  %13 = add nsw i32 %0, 1
  br label %22

14:                                               ; preds = %_ZN4absl12_GLOBAL__N_115GetMutexGlobalsEv.exit16
  call void @llvm.lifetime.start.p0(i64 4, ptr nonnull %3) #27
  store i32 0, ptr %3, align 4, !tbaa !22
  %15 = icmp eq i32 %0, %8
  br i1 %15, label %16, label %21

16:                                               ; preds = %14
  invoke void @AbslInternalMutexYield()
          to label %17 unwind label %19

17:                                               ; preds = %16
  %18 = add nsw i32 %0, 1
  br label %_ZN4absl13base_internal15SchedulingGuard12ScopedEnableD2Ev.exit

19:                                               ; preds = %21, %16
  %20 = landingpad { ptr, i32 }
          cleanup
  call void @_ZN4absl13base_internal15SchedulingGuard12ScopedEnableD2Ev(ptr noundef nonnull align 4 dereferenceable(4) %3) #27
  call void @llvm.lifetime.end.p0(i64 4, ptr nonnull %3) #27
  resume { ptr, i32 } %20

21:                                               ; preds = %14
  invoke void @AbslInternalSleepFor(i64 %.sroa.03.0.copyload, i32 %.sroa.5.0.copyload)
          to label %_ZN4absl13base_internal15SchedulingGuard12ScopedEnableD2Ev.exit unwind label %19

_ZN4absl13base_internal15SchedulingGuard12ScopedEnableD2Ev.exit: ; preds = %17, %21
  %.1 = phi i32 [ %18, %17 ], [ 0, %21 ]
  call void @llvm.lifetime.end.p0(i64 4, ptr nonnull %3) #27
  br label %22

22:                                               ; preds = %_ZN4absl13base_internal15SchedulingGuard12ScopedEnableD2Ev.exit, %12
  %.0 = phi i32 [ %13, %12 ], [ %.1, %_ZN4absl13base_internal15SchedulingGuard12ScopedEnableD2Ev.exit ]
  ret i32 %.0
}